; Function Attrs: null_pointer_is_valid sspstrong uwtable
define ptr @address_to_name(ptr noundef %0) local_unnamed_addr #6 {
  %2 = load i32, ptr %0, align 8
  %3 = sext i32 %2 to i64
  %4 = getelementptr [45 x ptr], ptr @type_list, i64 0, i64 %3
  %5 = load ptr, ptr %4, align 8
  %6 = icmp eq ptr %5, null
  br i1 %6, label %16, label %7

7:                                                ; preds = %1
  %cond = icmp eq i32 %2, 7
  br i1 %cond, label %8, label %11

8:                                                ; preds = %7
  %9 = getelementptr inbounds nuw i8, ptr %0, i64 8
  %10 = load ptr, ptr %9, align 8
  br label %16

11:                                               ; preds = %7
  %12 = getelementptr inbounds nuw i8, ptr %5, i64 64
  %13 = load ptr, ptr %12, align 8
  %.not = icmp eq ptr %13, null
  br i1 %.not, label %16, label %14

14:                                               ; preds = %11
  %15 = tail call ptr %13(ptr noundef %0)
  br label %16

16:                                               ; preds = %11, %1, %14, %8
  %.0 = phi ptr [ %10, %8 ], [ %15, %14 ], [ null, %1 ], [ null, %11 ]
  ret ptr %.0
}